target datalayout = "e-m:e-p270:32:32-p271:32:32-p272:64:64-i64:64-i128:128-f80:128-n8:16:32:64-S128"
target triple = "x86_64-pc-linux-gnu"

%struct._lv_table_t = type { %struct._lv_obj_t, i32, i32, ptr, ptr, ptr, i32, i32 }
%struct._lv_obj_t = type { ptr, ptr, ptr, ptr, ptr, %struct.lv_area_t, i32, i16, i16 }
%struct.lv_area_t = type { i32, i32, i32, i32 }

; Function Attrs: nounwind uwtable
define internal void @lv_table_constructor(ptr noundef %0, ptr noundef %1) #0 {
  %3 = alloca ptr, align 8
  %4 = alloca ptr, align 8
  %5 = alloca ptr, align 8
  store ptr %0, ptr %3, align 8, !tbaa !3
  store ptr %1, ptr %4, align 8, !tbaa !8
  call void @llvm.lifetime.start.p0(i64 8, ptr %5) #6
  %6 = load ptr, ptr %4, align 8, !tbaa !8
  store ptr %6, ptr %5, align 8, !tbaa !10
  %7 = load ptr, ptr %5, align 8, !tbaa !10
  %8 = getelementptr inbounds nuw %struct._lv_table_t, ptr %7, i32 0, i32 1
  store i32 1, ptr %8, align 8, !tbaa !12
  %9 = load ptr, ptr %5, align 8, !tbaa !10
  %10 = getelementptr inbounds nuw %struct._lv_table_t, ptr %9, i32 0, i32 2
  store i32 1, ptr %10, align 4, !tbaa !22
  %11 = load ptr, ptr %5, align 8, !tbaa !10
  %12 = getelementptr inbounds nuw %struct._lv_table_t, ptr %11, i32 0, i32 1
  %13 = load i32, ptr %12, align 8, !tbaa !12
  %14 = zext i32 %13 to i64
  %15 = mul i64 %14, 4
  %16 = call ptr @lv_malloc(i64 noundef %15)
  %17 = load ptr, ptr %5, align 8, !tbaa !10
  %18 = getelementptr inbounds nuw %struct._lv_table_t, ptr %17, i32 0, i32 5
  store ptr %16, ptr %18, align 8, !tbaa !23
  %19 = load ptr, ptr %5, align 8, !tbaa !10
  %20 = getelementptr inbounds nuw %struct._lv_table_t, ptr %19, i32 0, i32 2
  %21 = load i32, ptr %20, align 4, !tbaa !22
  %22 = zext i32 %21 to i64
  %23 = mul i64 %22, 4
  %24 = call ptr @lv_malloc(i64 noundef %23)
  %25 = load ptr, ptr %5, align 8, !tbaa !10
  %26 = getelementptr inbounds nuw %struct._lv_table_t, ptr %25, i32 0, i32 4
  store ptr %24, ptr %26, align 8, !tbaa !24
  %27 = load ptr, ptr %5, align 8, !tbaa !10
  %28 = getelementptr inbounds nuw %struct._lv_table_t, ptr %27, i32 0, i32 5
  %29 = load ptr, ptr %28, align 8, !tbaa !23
  %30 = getelementptr inbounds i32, ptr %29, i64 0
  store i32 130, ptr %30, align 4, !tbaa !25
  %31 = load ptr, ptr %5, align 8, !tbaa !10
  %32 = getelementptr inbounds nuw %struct._lv_table_t, ptr %31, i32 0, i32 4
  %33 = load ptr, ptr %32, align 8, !tbaa !24
  %34 = getelementptr inbounds i32, ptr %33, i64 0
  store i32 130, ptr %34, align 4, !tbaa !25
  %35 = load ptr, ptr %5, align 8, !tbaa !10
  %36 = getelementptr inbounds nuw %struct._lv_table_t, ptr %35, i32 0, i32 3
  %37 = load ptr, ptr %36, align 8, !tbaa !26
  %38 = load ptr, ptr %5, align 8, !tbaa !10
  %39 = getelementptr inbounds nuw %struct._lv_table_t, ptr %38, i32 0, i32 2
  %40 = load i32, ptr %39, align 4, !tbaa !22
  %41 = load ptr, ptr %5, align 8, !tbaa !10
  %42 = getelementptr inbounds nuw %struct._lv_table_t, ptr %41, i32 0, i32 1
  %43 = load i32, ptr %42, align 8, !tbaa !12
  %44 = mul i32 %40, %43
  %45 = zext i32 %44 to i64
  %46 = mul i64 %45, 8
  %47 = call ptr @lv_realloc(ptr noundef %37, i64 noundef %46)
  %48 = load ptr, ptr %5, align 8, !tbaa !10
  %49 = getelementptr inbounds nuw %struct._lv_table_t, ptr %48, i32 0, i32 3
  store ptr %47, ptr %49, align 8, !tbaa !26
  %50 = load ptr, ptr %5, align 8, !tbaa !10
  %51 = getelementptr inbounds nuw %struct._lv_table_t, ptr %50, i32 0, i32 3
  %52 = load ptr, ptr %51, align 8, !tbaa !26
  %53 = getelementptr inbounds ptr, ptr %52, i64 0
  store ptr null, ptr %53, align 8, !tbaa !27
  %54 = load ptr, ptr %5, align 8, !tbaa !10
  %55 = getelementptr inbounds nuw %struct._lv_table_t, ptr %54, i32 0, i32 7
  store i32 65535, ptr %55, align 4, !tbaa !29
  %56 = load ptr, ptr %5, align 8, !tbaa !10
  %57 = getelementptr inbounds nuw %struct._lv_table_t, ptr %56, i32 0, i32 6
  store i32 65535, ptr %57, align 8, !tbaa !30
  call void @llvm.lifetime.end.p0(i64 8, ptr %5) #6
  ret void
}