; Function Attrs: nounwind uwtable
define internal void @lv_table_constructor(ptr readnone captures(none) %0, ptr noundef captures(none) initializes((64, 72), (80, 104)) %1) #0 {
  %3 = getelementptr inbounds nuw i8, ptr %1, i64 64
  store i32 1, ptr %3, align 8, !tbaa !3
  %4 = getelementptr inbounds nuw i8, ptr %1, i64 68
  store i32 1, ptr %4, align 4, !tbaa !18
  %5 = tail call ptr @lv_malloc(i64 noundef 4) #9
  %6 = getelementptr inbounds nuw i8, ptr %1, i64 88
  store ptr %5, ptr %6, align 8, !tbaa !19
  %7 = load i32, ptr %4, align 4, !tbaa !18
  %8 = zext i32 %7 to i64
  %9 = shl nuw nsw i64 %8, 2
  %10 = tail call ptr @lv_malloc(i64 noundef %9) #9
  %11 = getelementptr inbounds nuw i8, ptr %1, i64 80
  store ptr %10, ptr %11, align 8, !tbaa !20
  %12 = load ptr, ptr %6, align 8, !tbaa !19
  store i32 130, ptr %12, align 4, !tbaa !21
  store i32 130, ptr %10, align 4, !tbaa !21
  %13 = getelementptr inbounds nuw i8, ptr %1, i64 72
  %14 = load ptr, ptr %13, align 8, !tbaa !22
  %15 = load i32, ptr %4, align 4, !tbaa !18
  %16 = load i32, ptr %3, align 8, !tbaa !3
  %17 = mul i32 %16, %15
  %18 = zext i32 %17 to i64
  %19 = shl nuw nsw i64 %18, 3
  %20 = tail call ptr @lv_realloc(ptr noundef %14, i64 noundef %19) #9
  store ptr %20, ptr %13, align 8, !tbaa !22
  store ptr null, ptr %20, align 8, !tbaa !23
  %21 = getelementptr inbounds nuw i8, ptr %1, i64 100
  store i32 65535, ptr %21, align 4, !tbaa !25
  %22 = getelementptr inbounds nuw i8, ptr %1, i64 96
  store i32 65535, ptr %22, align 8, !tbaa !26
  ret void
}